target datalayout = "e-m:e-p270:32:32-p271:32:32-p272:64:64-i64:64-i128:128-f80:128-n8:16:32:64-S128"
target triple = "x86_64-pc-linux-gnu"

%struct.Cbs_Par_t_ = type { i32, i32, i32, i32, i32, i32, i32, i32, i32, i32, i32 }
%struct.Cbs_Man_t_ = type { %struct.Cbs_Par_t_, ptr, %struct.Cbs_Que_t_, %struct.Cbs_Que_t_, %struct.Cbs_Que_t_, ptr, ptr, ptr, ptr, i32, i32, i32, i32, i32, i32, i32, i64, i64, i64, i64 }
%struct.Cbs_Que_t_ = type { i32, i32, i32, ptr }
%struct.Vec_Int_t_ = type { i32, i32, ptr }
%struct.Gia_Obj_t_ = type <{ i64, i32 }>

; Function Attrs: inlinehint nounwind uwtable
define internal i32 @Vec_IntEntry(ptr noundef %0, i32 noundef %1) #5 {
  %3 = alloca ptr, align 8
  %4 = alloca i32, align 4
  store ptr %0, ptr %3, align 8, !tbaa !40
  store i32 %1, ptr %4, align 4, !tbaa !18
  %5 = load ptr, ptr %3, align 8, !tbaa !40
  %6 = getelementptr inbounds nuw %struct.Vec_Int_t_, ptr %5, i32 0, i32 2
  %7 = load ptr, ptr %6, align 8, !tbaa !45
  %8 = load i32, ptr %4, align 4, !tbaa !18
  %9 = sext i32 %8 to i64
  %10 = getelementptr inbounds i32, ptr %7, i64 %9
  %11 = load i32, ptr %10, align 4, !tbaa !18
  ret i32 %11
}

; Function Attrs: inlinehint nounwind uwtable
define internal i32 @Cbs_QueFinish(ptr noundef %0) #5 {
  %2 = alloca ptr, align 8
  %3 = alloca i32, align 4
  store ptr %0, ptr %2, align 8, !tbaa !60
  call void @llvm.lifetime.start.p0(i64 4, ptr %3) #11
  %4 = load ptr, ptr %2, align 8, !tbaa !60
  %5 = getelementptr inbounds nuw %struct.Cbs_Que_t_, ptr %4, i32 0, i32 0
  %6 = load i32, ptr %5, align 8, !tbaa !68
  store i32 %6, ptr %3, align 4, !tbaa !18
  %7 = load ptr, ptr %2, align 8, !tbaa !60
  call void @Cbs_QuePush(ptr noundef %7, ptr noundef null)
  %8 = load ptr, ptr %2, align 8, !tbaa !60
  %9 = getelementptr inbounds nuw %struct.Cbs_Que_t_, ptr %8, i32 0, i32 1
  %10 = load i32, ptr %9, align 4, !tbaa !69
  %11 = load ptr, ptr %2, align 8, !tbaa !60
  %12 = getelementptr inbounds nuw %struct.Cbs_Que_t_, ptr %11, i32 0, i32 0
  store i32 %10, ptr %12, align 8, !tbaa !68
  %13 = load i32, ptr %3, align 4, !tbaa !18
  call void @llvm.lifetime.end.p0(i64 4, ptr %3) #11
  ret i32 %13
}

; Function Attrs: inlinehint nounwind uwtable
define internal i32 @Cbs_VarDecLevel(ptr noundef %0, ptr noundef %1) #5 {
  %3 = alloca ptr, align 8
  %4 = alloca ptr, align 8
  store ptr %0, ptr %3, align 8, !tbaa !16
  store ptr %1, ptr %4, align 8, !tbaa !53
  %5 = load ptr, ptr %3, align 8, !tbaa !16
  %6 = getelementptr inbounds nuw %struct.Cbs_Man_t_, ptr %5, i32 0, i32 6
  %7 = load ptr, ptr %6, align 8, !tbaa !37
  %8 = load ptr, ptr %4, align 8, !tbaa !53
  %9 = getelementptr inbounds nuw %struct.Gia_Obj_t_, ptr %8, i32 0, i32 1
  %10 = load i32, ptr %9, align 4, !tbaa !76
  %11 = mul i32 3, %10
  %12 = call i32 @Vec_IntEntry(ptr noundef %7, i32 noundef %11)
  ret i32 %12
}

; Function Attrs: inlinehint nounwind uwtable
define internal void @Cbs_QuePush(ptr noundef %0, ptr noundef %1) #5 {
  %3 = alloca ptr, align 8
  %4 = alloca ptr, align 8
  store ptr %0, ptr %3, align 8, !tbaa !60
  store ptr %1, ptr %4, align 8, !tbaa !53
  %5 = load ptr, ptr %3, align 8, !tbaa !60
  %6 = getelementptr inbounds nuw %struct.Cbs_Que_t_, ptr %5, i32 0, i32 1
  %7 = load i32, ptr %6, align 4, !tbaa !69
  %8 = load ptr, ptr %3, align 8, !tbaa !60
  %9 = getelementptr inbounds nuw %struct.Cbs_Que_t_, ptr %8, i32 0, i32 2
  %10 = load i32, ptr %9, align 8, !tbaa !128
  %11 = icmp eq i32 %7, %10
  br i1 %11, label %12, label %42

12:                                               ; preds = %2
  %13 = load ptr, ptr %3, align 8, !tbaa !60
  %14 = getelementptr inbounds nuw %struct.Cbs_Que_t_, ptr %13, i32 0, i32 2
  %15 = load i32, ptr %14, align 8, !tbaa !128
  %16 = mul nsw i32 %15, 2
  store i32 %16, ptr %14, align 8, !tbaa !128
  %17 = load ptr, ptr %3, align 8, !tbaa !60
  %18 = getelementptr inbounds nuw %struct.Cbs_Que_t_, ptr %17, i32 0, i32 3
  %19 = load ptr, ptr %18, align 8, !tbaa !66
  %20 = icmp ne ptr %19, null
  br i1 %20, label %21, label %31

21:                                               ; preds = %12
  %22 = load ptr, ptr %3, align 8, !tbaa !60
  %23 = getelementptr inbounds nuw %struct.Cbs_Que_t_, ptr %22, i32 0, i32 3
  %24 = load ptr, ptr %23, align 8, !tbaa !66
  %25 = load ptr, ptr %3, align 8, !tbaa !60
  %26 = getelementptr inbounds nuw %struct.Cbs_Que_t_, ptr %25, i32 0, i32 2
  %27 = load i32, ptr %26, align 8, !tbaa !128
  %28 = sext i32 %27 to i64
  %29 = mul i64 8, %28
  %30 = call ptr @realloc(ptr noundef %24, i64 noundef %29) #15
  br label %38

31:                                               ; preds = %12
  %32 = load ptr, ptr %3, align 8, !tbaa !60
  %33 = getelementptr inbounds nuw %struct.Cbs_Que_t_, ptr %32, i32 0, i32 2
  %34 = load i32, ptr %33, align 8, !tbaa !128
  %35 = sext i32 %34 to i64
  %36 = mul i64 8, %35
  %37 = call noalias ptr @malloc(i64 noundef %36) #13
  br label %38

38:                                               ; preds = %31, %21
  %39 = phi ptr [ %30, %21 ], [ %37, %31 ]
  %40 = load ptr, ptr %3, align 8, !tbaa !60
  %41 = getelementptr inbounds nuw %struct.Cbs_Que_t_, ptr %40, i32 0, i32 3
  store ptr %39, ptr %41, align 8, !tbaa !66
  br label %42

42:                                               ; preds = %38, %2
  %43 = load ptr, ptr %4, align 8, !tbaa !53
  %44 = load ptr, ptr %3, align 8, !tbaa !60
  %45 = getelementptr inbounds nuw %struct.Cbs_Que_t_, ptr %44, i32 0, i32 3
  %46 = load ptr, ptr %45, align 8, !tbaa !66
  %47 = load ptr, ptr %3, align 8, !tbaa !60
  %48 = getelementptr inbounds nuw %struct.Cbs_Que_t_, ptr %47, i32 0, i32 1
  %49 = load i32, ptr %48, align 4, !tbaa !69
  %50 = add nsw i32 %49, 1
  store i32 %50, ptr %48, align 4, !tbaa !69
  %51 = sext i32 %49 to i64
  %52 = getelementptr inbounds ptr, ptr %46, i64 %51
  store ptr %43, ptr %52, align 8, !tbaa !53
  ret void
}

; Function Attrs: inlinehint nounwind uwtable
define internal i32 @Cbs_ManResolve(ptr noundef %0, i32 noundef %1, i32 noundef %2, i32 noundef %3) #5 {
  %5 = alloca ptr, align 8
  %6 = alloca i32, align 4
  %7 = alloca i32, align 4
  %8 = alloca i32, align 4
  %9 = alloca ptr, align 8
  %10 = alloca ptr, align 8
  %11 = alloca i32, align 4
  %12 = alloca i32, align 4
  %13 = alloca i32, align 4
  store ptr %0, ptr %5, align 8, !tbaa !16
  store i32 %1, ptr %6, align 4, !tbaa !18
  store i32 %2, ptr %7, align 4, !tbaa !18
  store i32 %3, ptr %8, align 4, !tbaa !18
  call void @llvm.lifetime.start.p0(i64 8, ptr %9) #11
  %14 = load ptr, ptr %5, align 8, !tbaa !16
  %15 = getelementptr inbounds nuw %struct.Cbs_Man_t_, ptr %14, i32 0, i32 4
  store ptr %15, ptr %9, align 8, !tbaa !60
  call void @llvm.lifetime.start.p0(i64 8, ptr %10) #11
  call void @llvm.lifetime.start.p0(i64 4, ptr %11) #11
  call void @llvm.lifetime.start.p0(i64 4, ptr %12) #11
  store i32 -1, ptr %12, align 4, !tbaa !18
  call void @llvm.lifetime.start.p0(i64 4, ptr %13) #11
  %16 = load ptr, ptr %9, align 8, !tbaa !60
  call void @Cbs_QuePush(ptr noundef %16, ptr noundef null)
  %17 = load i32, ptr %7, align 4, !tbaa !18
  %18 = add nsw i32 %17, 1
  store i32 %18, ptr %11, align 4, !tbaa !18
  br label %19

19:                                               ; preds = %52, %4
  %20 = load ptr, ptr %9, align 8, !tbaa !60
  %21 = getelementptr inbounds nuw %struct.Cbs_Que_t_, ptr %20, i32 0, i32 3
  %22 = load ptr, ptr %21, align 8, !tbaa !66
  %23 = load i32, ptr %11, align 4, !tbaa !18
  %24 = sext i32 %23 to i64
  %25 = getelementptr inbounds ptr, ptr %22, i64 %24
  %26 = load ptr, ptr %25, align 8, !tbaa !53
  store ptr %26, ptr %10, align 8, !tbaa !53
  %27 = icmp ne ptr %26, null
  br i1 %27, label %28, label %55

28:                                               ; preds = %19
  %29 = load ptr, ptr %10, align 8, !tbaa !53
  %30 = load i64, ptr %29, align 4
  %31 = lshr i64 %30, 30
  %32 = and i64 %31, 1
  %33 = trunc i64 %32 to i32
  %34 = icmp ne i32 %33, 0
  br i1 %34, label %36, label %35

35:                                               ; preds = %28
  br label %52

36:                                               ; preds = %28
  %37 = load ptr, ptr %10, align 8, !tbaa !53
  %38 = load i64, ptr %37, align 4
  %39 = and i64 %38, -1073741825
  %40 = or i64 %39, 0
  store i64 %40, ptr %37, align 4
  %41 = load ptr, ptr %9, align 8, !tbaa !60
  %42 = load ptr, ptr %10, align 8, !tbaa !53
  call void @Cbs_QuePush(ptr noundef %41, ptr noundef %42)
  %43 = load ptr, ptr %5, align 8, !tbaa !16
  %44 = load ptr, ptr %10, align 8, !tbaa !53
  %45 = call i32 @Cbs_VarDecLevel(ptr noundef %43, ptr noundef %44)
  store i32 %45, ptr %13, align 4, !tbaa !18
  %46 = load i32, ptr %12, align 4, !tbaa !18
  %47 = load i32, ptr %13, align 4, !tbaa !18
  %48 = icmp slt i32 %46, %47
  br i1 %48, label %49, label %51

49:                                               ; preds = %36
  %50 = load i32, ptr %13, align 4, !tbaa !18
  store i32 %50, ptr %12, align 4, !tbaa !18
  br label %51

51:                                               ; preds = %49, %36
  br label %52

52:                                               ; preds = %51, %35
  %53 = load i32, ptr %11, align 4, !tbaa !18
  %54 = add nsw i32 %53, 1
  store i32 %54, ptr %11, align 4, !tbaa !18
  br label %19, !llvm.loop !79

55:                                               ; preds = %19
  %56 = load i32, ptr %8, align 4, !tbaa !18
  %57 = add nsw i32 %56, 1
  store i32 %57, ptr %11, align 4, !tbaa !18
  br label %58

58:                                               ; preds = %91, %55
  %59 = load ptr, ptr %9, align 8, !tbaa !60
  %60 = getelementptr inbounds nuw %struct.Cbs_Que_t_, ptr %59, i32 0, i32 3
  %61 = load ptr, ptr %60, align 8, !tbaa !66
  %62 = load i32, ptr %11, align 4, !tbaa !18
  %63 = sext i32 %62 to i64
  %64 = getelementptr inbounds ptr, ptr %61, i64 %63
  %65 = load ptr, ptr %64, align 8, !tbaa !53
  store ptr %65, ptr %10, align 8, !tbaa !53
  %66 = icmp ne ptr %65, null
  br i1 %66, label %67, label %94

67:                                               ; preds = %58
  %68 = load ptr, ptr %10, align 8, !tbaa !53
  %69 = load i64, ptr %68, align 4
  %70 = lshr i64 %69, 30
  %71 = and i64 %70, 1
  %72 = trunc i64 %71 to i32
  %73 = icmp ne i32 %72, 0
  br i1 %73, label %75, label %74

74:                                               ; preds = %67
  br label %91

75:                                               ; preds = %67
  %76 = load ptr, ptr %10, align 8, !tbaa !53
  %77 = load i64, ptr %76, align 4
  %78 = and i64 %77, -1073741825
  %79 = or i64 %78, 0
  store i64 %79, ptr %76, align 4
  %80 = load ptr, ptr %9, align 8, !tbaa !60
  %81 = load ptr, ptr %10, align 8, !tbaa !53
  call void @Cbs_QuePush(ptr noundef %80, ptr noundef %81)
  %82 = load ptr, ptr %5, align 8, !tbaa !16
  %83 = load ptr, ptr %10, align 8, !tbaa !53
  %84 = call i32 @Cbs_VarDecLevel(ptr noundef %82, ptr noundef %83)
  store i32 %84, ptr %13, align 4, !tbaa !18
  %85 = load i32, ptr %12, align 4, !tbaa !18
  %86 = load i32, ptr %13, align 4, !tbaa !18
  %87 = icmp slt i32 %85, %86
  br i1 %87, label %88, label %90

88:                                               ; preds = %75
  %89 = load i32, ptr %13, align 4, !tbaa !18
  store i32 %89, ptr %12, align 4, !tbaa !18
  br label %90

90:                                               ; preds = %88, %75
  br label %91

91:                                               ; preds = %90, %74
  %92 = load i32, ptr %11, align 4, !tbaa !18
  %93 = add nsw i32 %92, 1
  store i32 %93, ptr %11, align 4, !tbaa !18
  br label %58, !llvm.loop !80

94:                                               ; preds = %58
  %95 = load ptr, ptr %9, align 8, !tbaa !60
  %96 = getelementptr inbounds nuw %struct.Cbs_Que_t_, ptr %95, i32 0, i32 0
  %97 = load i32, ptr %96, align 8, !tbaa !68
  %98 = add nsw i32 %97, 1
  store i32 %98, ptr %11, align 4, !tbaa !18
  br label %99

99:                                               ; preds = %116, %94
  %100 = load i32, ptr %11, align 4, !tbaa !18
  %101 = load ptr, ptr %9, align 8, !tbaa !60
  %102 = getelementptr inbounds nuw %struct.Cbs_Que_t_, ptr %101, i32 0, i32 1
  %103 = load i32, ptr %102, align 4, !tbaa !69
  %104 = icmp slt i32 %100, %103
  br i1 %104, label %105, label %119

105:                                              ; preds = %99
  %106 = load ptr, ptr %9, align 8, !tbaa !60
  %107 = getelementptr inbounds nuw %struct.Cbs_Que_t_, ptr %106, i32 0, i32 3
  %108 = load ptr, ptr %107, align 8, !tbaa !66
  %109 = load i32, ptr %11, align 4, !tbaa !18
  %110 = sext i32 %109 to i64
  %111 = getelementptr inbounds ptr, ptr %108, i64 %110
  %112 = load ptr, ptr %111, align 8, !tbaa !53
  %113 = load i64, ptr %112, align 4
  %114 = and i64 %113, -1073741825
  %115 = or i64 %114, 1073741824
  store i64 %115, ptr %112, align 4
  br label %116

116:                                              ; preds = %105
  %117 = load i32, ptr %11, align 4, !tbaa !18
  %118 = add nsw i32 %117, 1
  store i32 %118, ptr %11, align 4, !tbaa !18
  br label %99, !llvm.loop !81

119:                                              ; preds = %99
  %120 = load ptr, ptr %5, align 8, !tbaa !16
  %121 = load i32, ptr %12, align 4, !tbaa !18
  call void @Cbs_ManDeriveReason(ptr noundef %120, i32 noundef %121)
  %122 = load ptr, ptr %9, align 8, !tbaa !60
  %123 = call i32 @Cbs_QueFinish(ptr noundef %122)
  call void @llvm.lifetime.end.p0(i64 4, ptr %13) #11
  call void @llvm.lifetime.end.p0(i64 4, ptr %12) #11
  call void @llvm.lifetime.end.p0(i64 4, ptr %11) #11
  call void @llvm.lifetime.end.p0(i64 8, ptr %10) #11
  call void @llvm.lifetime.end.p0(i64 8, ptr %9) #11
  ret i32 %123
}