; Function Attrs: inlinehint nounwind uwtable
define internal fastcc i32 @Cbs_ManResolve(ptr noundef captures(none) %0, i32 noundef range(i32 1, 0) %1, i32 noundef range(i32 1, 0) %2) unnamed_addr #13 {
  %4 = getelementptr inbounds nuw i8, ptr %0, i64 104
  %5 = getelementptr inbounds nuw i8, ptr %0, i64 108
  %6 = load i32, ptr %5, align 4, !tbaa !49
  %7 = getelementptr inbounds nuw i8, ptr %0, i64 112
  %8 = load i32, ptr %7, align 8, !tbaa !50
  %9 = icmp eq i32 %6, %8
  br i1 %9, label %10, label %._crit_edge.i

._crit_edge.i:                                    ; preds = %3
  %.phi.trans.insert.i = getelementptr inbounds nuw i8, ptr %0, i64 120
  %.pre.i = load ptr, ptr %.phi.trans.insert.i, align 8, !tbaa !51
  br label %Cbs_QuePush.exit

10:                                               ; preds = %3
  %11 = shl nsw i32 %6, 1
  store i32 %11, ptr %7, align 8, !tbaa !50
  %12 = getelementptr inbounds nuw i8, ptr %0, i64 120
  %13 = load ptr, ptr %12, align 8, !tbaa !51
  %.not.i = icmp eq ptr %13, null
  %14 = sext i32 %11 to i64
  %15 = shl nsw i64 %14, 3
  br i1 %.not.i, label %18, label %16

16:                                               ; preds = %10
  %17 = tail call ptr @realloc(ptr noundef nonnull %13, i64 noundef %15) #25
  %.pre12.pre.i = load i32, ptr %5, align 4, !tbaa !49
  br label %20

18:                                               ; preds = %10
  %19 = tail call noalias ptr @malloc(i64 noundef %15) #23
  br label %20

20:                                               ; preds = %18, %16
  %.pre12.i = phi i32 [ %.pre12.pre.i, %16 ], [ %6, %18 ]
  %21 = phi ptr [ %17, %16 ], [ %19, %18 ]
  store ptr %21, ptr %12, align 8, !tbaa !51
  br label %Cbs_QuePush.exit

Cbs_QuePush.exit:                                 ; preds = %._crit_edge.i, %20
  %22 = phi i32 [ %6, %._crit_edge.i ], [ %.pre12.i, %20 ]
  %23 = phi ptr [ %.pre.i, %._crit_edge.i ], [ %21, %20 ]
  %24 = add nsw i32 %22, 1
  store i32 %24, ptr %5, align 4, !tbaa !49
  %25 = sext i32 %22 to i64
  %26 = getelementptr inbounds ptr, ptr %23, i64 %25
  store ptr null, ptr %26, align 8, !tbaa !45
  %27 = getelementptr inbounds nuw i8, ptr %0, i64 120
  %.03664 = add nsw i32 %1, 1
  %28 = sext i32 %.03664 to i64
  %29 = getelementptr inbounds ptr, ptr %23, i64 %28
  %30 = load ptr, ptr %29, align 8, !tbaa !45
  %.not65 = icmp eq ptr %30, null
  br i1 %.not65, label %.preheader, label %.lr.ph

.lr.ph:                                           ; preds = %Cbs_QuePush.exit
  %31 = getelementptr i8, ptr %0, i64 136
  br label %38

.preheader:                                       ; preds = %71, %Cbs_QuePush.exit
  %32 = phi i32 [ %24, %Cbs_QuePush.exit ], [ %72, %71 ]
  %33 = phi ptr [ %23, %Cbs_QuePush.exit ], [ %73, %71 ]
  %.0.lcssa = phi i32 [ -1, %Cbs_QuePush.exit ], [ %.1, %71 ]
  %.13768 = add nsw i32 %2, 1
  %34 = sext i32 %.13768 to i64
  %35 = getelementptr inbounds ptr, ptr %33, i64 %34
  %36 = load ptr, ptr %35, align 8, !tbaa !45
  %.not4369 = icmp eq ptr %36, null
  br i1 %.not4369, label %._crit_edge, label %.lr.ph72

.lr.ph72:                                         ; preds = %.preheader
  %37 = getelementptr i8, ptr %0, i64 136
  br label %76

38:                                               ; preds = %.lr.ph, %71
  %39 = phi i32 [ %24, %.lr.ph ], [ %72, %71 ]
  %40 = phi ptr [ %23, %.lr.ph ], [ %73, %71 ]
  %indvars.iv = phi i64 [ %28, %.lr.ph ], [ %indvars.iv.next, %71 ]
  %41 = phi ptr [ %30, %.lr.ph ], [ %75, %71 ]
  %.066 = phi i32 [ -1, %.lr.ph ], [ %.1, %71 ]
  %42 = load i64, ptr %41, align 4
  %43 = and i64 %42, 1073741824
  %.not45 = icmp eq i64 %43, 0
  br i1 %.not45, label %71, label %44

44:                                               ; preds = %38
  %45 = and i64 %42, -1073741825
  store i64 %45, ptr %41, align 4
  %46 = load i32, ptr %5, align 4, !tbaa !49
  %47 = load i32, ptr %7, align 8, !tbaa !50
  %48 = icmp eq i32 %46, %47
  br i1 %48, label %49, label %._crit_edge.i50

._crit_edge.i50:                                  ; preds = %44
  %.pre.i52 = load ptr, ptr %27, align 8, !tbaa !51
  br label %Cbs_QuePush.exit56

49:                                               ; preds = %44
  %50 = shl nsw i32 %46, 1
  store i32 %50, ptr %7, align 8, !tbaa !50
  %51 = load ptr, ptr %27, align 8, !tbaa !51
  %.not.i53 = icmp eq ptr %51, null
  %52 = sext i32 %50 to i64
  %53 = shl nsw i64 %52, 3
  br i1 %.not.i53, label %56, label %54

54:                                               ; preds = %49
  %55 = tail call ptr @realloc(ptr noundef nonnull %51, i64 noundef %53) #25
  %.pre12.pre.i54 = load i32, ptr %5, align 4, !tbaa !49
  br label %58

56:                                               ; preds = %49
  %57 = tail call noalias ptr @malloc(i64 noundef %53) #23
  br label %58

58:                                               ; preds = %56, %54
  %.pre12.i55 = phi i32 [ %.pre12.pre.i54, %54 ], [ %46, %56 ]
  %59 = phi ptr [ %55, %54 ], [ %57, %56 ]
  store ptr %59, ptr %27, align 8, !tbaa !51
  br label %Cbs_QuePush.exit56

Cbs_QuePush.exit56:                               ; preds = %._crit_edge.i50, %58
  %60 = phi i32 [ %46, %._crit_edge.i50 ], [ %.pre12.i55, %58 ]
  %61 = phi ptr [ %.pre.i52, %._crit_edge.i50 ], [ %59, %58 ]
  %62 = add nsw i32 %60, 1
  store i32 %62, ptr %5, align 4, !tbaa !49
  %63 = sext i32 %60 to i64
  %64 = getelementptr inbounds ptr, ptr %61, i64 %63
  store ptr %41, ptr %64, align 8, !tbaa !45
  %.val = load ptr, ptr %31, align 8, !tbaa !36
  %65 = getelementptr i8, ptr %41, i64 8
  %.val47 = load i32, ptr %65, align 4, !tbaa !82
  %66 = getelementptr i8, ptr %.val, i64 8
  %.val.val = load ptr, ptr %66, align 8, !tbaa !34
  %67 = mul i32 %.val47, 3
  %68 = sext i32 %67 to i64
  %69 = getelementptr inbounds i32, ptr %.val.val, i64 %68
  %70 = load i32, ptr %69, align 4, !tbaa !80
  %spec.select = tail call i32 @llvm.smax.i32(i32 %.066, i32 %70)
  br label %71

71:                                               ; preds = %Cbs_QuePush.exit56, %38
  %72 = phi i32 [ %39, %38 ], [ %62, %Cbs_QuePush.exit56 ]
  %73 = phi ptr [ %40, %38 ], [ %61, %Cbs_QuePush.exit56 ]
  %.1 = phi i32 [ %.066, %38 ], [ %spec.select, %Cbs_QuePush.exit56 ]
  %indvars.iv.next = add nsw i64 %indvars.iv, 1
  %74 = getelementptr inbounds ptr, ptr %73, i64 %indvars.iv.next
  %75 = load ptr, ptr %74, align 8, !tbaa !45
  %.not = icmp eq ptr %75, null
  br i1 %.not, label %.preheader, label %38, !llvm.loop !85

76:                                               ; preds = %.lr.ph72, %109
  %77 = phi i32 [ %32, %.lr.ph72 ], [ %110, %109 ]
  %78 = phi ptr [ %33, %.lr.ph72 ], [ %111, %109 ]
  %indvars.iv80 = phi i64 [ %34, %.lr.ph72 ], [ %indvars.iv.next81, %109 ]
  %79 = phi ptr [ %36, %.lr.ph72 ], [ %113, %109 ]
  %.270 = phi i32 [ %.0.lcssa, %.lr.ph72 ], [ %.3, %109 ]
  %80 = load i64, ptr %79, align 4
  %81 = and i64 %80, 1073741824
  %.not44 = icmp eq i64 %81, 0
  br i1 %.not44, label %109, label %82

82:                                               ; preds = %76
  %83 = and i64 %80, -1073741825
  store i64 %83, ptr %79, align 4
  %84 = load i32, ptr %5, align 4, !tbaa !49
  %85 = load i32, ptr %7, align 8, !tbaa !50
  %86 = icmp eq i32 %84, %85
  br i1 %86, label %87, label %._crit_edge.i57

._crit_edge.i57:                                  ; preds = %82
  %.pre.i59 = load ptr, ptr %27, align 8, !tbaa !51
  br label %Cbs_QuePush.exit63

87:                                               ; preds = %82
  %88 = shl nsw i32 %84, 1
  store i32 %88, ptr %7, align 8, !tbaa !50
  %89 = load ptr, ptr %27, align 8, !tbaa !51
  %.not.i60 = icmp eq ptr %89, null
  %90 = sext i32 %88 to i64
  %91 = shl nsw i64 %90, 3
  br i1 %.not.i60, label %94, label %92

92:                                               ; preds = %87
  %93 = tail call ptr @realloc(ptr noundef nonnull %89, i64 noundef %91) #25
  %.pre12.pre.i61 = load i32, ptr %5, align 4, !tbaa !49
  br label %96

94:                                               ; preds = %87
  %95 = tail call noalias ptr @malloc(i64 noundef %91) #23
  br label %96

96:                                               ; preds = %94, %92
  %.pre12.i62 = phi i32 [ %.pre12.pre.i61, %92 ], [ %84, %94 ]
  %97 = phi ptr [ %93, %92 ], [ %95, %94 ]
  store ptr %97, ptr %27, align 8, !tbaa !51
  br label %Cbs_QuePush.exit63

Cbs_QuePush.exit63:                               ; preds = %._crit_edge.i57, %96
  %98 = phi i32 [ %84, %._crit_edge.i57 ], [ %.pre12.i62, %96 ]
  %99 = phi ptr [ %.pre.i59, %._crit_edge.i57 ], [ %97, %96 ]
  %100 = add nsw i32 %98, 1
  store i32 %100, ptr %5, align 4, !tbaa !49
  %101 = sext i32 %98 to i64
  %102 = getelementptr inbounds ptr, ptr %99, i64 %101
  store ptr %79, ptr %102, align 8, !tbaa !45
  %.val48 = load ptr, ptr %37, align 8, !tbaa !36
  %103 = getelementptr i8, ptr %79, i64 8
  %.val49 = load i32, ptr %103, align 4, !tbaa !82
  %104 = getelementptr i8, ptr %.val48, i64 8
  %.val48.val = load ptr, ptr %104, align 8, !tbaa !34
  %105 = mul i32 %.val49, 3
  %106 = sext i32 %105 to i64
  %107 = getelementptr inbounds i32, ptr %.val48.val, i64 %106
  %108 = load i32, ptr %107, align 4, !tbaa !80
  %spec.select46 = tail call i32 @llvm.smax.i32(i32 %.270, i32 %108)
  br label %109

109:                                              ; preds = %Cbs_QuePush.exit63, %76
  %110 = phi i32 [ %77, %76 ], [ %100, %Cbs_QuePush.exit63 ]
  %111 = phi ptr [ %78, %76 ], [ %99, %Cbs_QuePush.exit63 ]
  %.3 = phi i32 [ %.270, %76 ], [ %spec.select46, %Cbs_QuePush.exit63 ]
  %indvars.iv.next81 = add nsw i64 %indvars.iv80, 1
  %112 = getelementptr inbounds ptr, ptr %111, i64 %indvars.iv.next81
  %113 = load ptr, ptr %112, align 8, !tbaa !45
  %.not43 = icmp eq ptr %113, null
  br i1 %.not43, label %._crit_edge, label %76, !llvm.loop !86

._crit_edge:                                      ; preds = %109, %.preheader
  %114 = phi i32 [ %32, %.preheader ], [ %110, %109 ]
  %.2.lcssa = phi i32 [ %.0.lcssa, %.preheader ], [ %.3, %109 ]
  %115 = load i32, ptr %4, align 8, !tbaa !55
  %.23874 = add nsw i32 %115, 1
  %116 = icmp slt i32 %.23874, %114
  br i1 %116, label %.lr.ph77.preheader, label %._crit_edge78

.lr.ph77.preheader:                               ; preds = %._crit_edge
  %117 = sext i32 %115 to i64
  %118 = add nsw i64 %117, 1
  br label %.lr.ph77

.lr.ph77:                                         ; preds = %.lr.ph77.preheader, %.lr.ph77
  %indvars.iv83 = phi i64 [ %118, %.lr.ph77.preheader ], [ %indvars.iv.next84, %.lr.ph77 ]
  %119 = load ptr, ptr %27, align 8, !tbaa !51
  %120 = getelementptr inbounds ptr, ptr %119, i64 %indvars.iv83
  %121 = load ptr, ptr %120, align 8, !tbaa !45
  %122 = load i64, ptr %121, align 4
  %123 = or i64 %122, 1073741824
  store i64 %123, ptr %121, align 4
  %indvars.iv.next84 = add nsw i64 %indvars.iv83, 1
  %124 = load i32, ptr %5, align 4, !tbaa !49
  %125 = sext i32 %124 to i64
  %126 = icmp slt i64 %indvars.iv.next84, %125
  br i1 %126, label %.lr.ph77, label %._crit_edge78, !llvm.loop !87

._crit_edge78:                                    ; preds = %.lr.ph77, %._crit_edge
  tail call fastcc void @Cbs_ManDeriveReason(ptr noundef nonnull %0, i32 noundef %.2.lcssa)
  %127 = load i32, ptr %4, align 8, !tbaa !55
  %128 = load i32, ptr %5, align 4, !tbaa !49
  %129 = load i32, ptr %7, align 8, !tbaa !50
  %130 = icmp eq i32 %128, %129
  br i1 %130, label %131, label %._crit_edge.i.i

._crit_edge.i.i:                                  ; preds = %._crit_edge78
  %.pre.i.i = load ptr, ptr %27, align 8, !tbaa !51
  br label %Cbs_QueFinish.exit

131:                                              ; preds = %._crit_edge78
  %132 = shl nsw i32 %128, 1
  store i32 %132, ptr %7, align 8, !tbaa !50
  %133 = load ptr, ptr %27, align 8, !tbaa !51
  %.not.i.i = icmp eq ptr %133, null
  %134 = sext i32 %132 to i64
  %135 = shl nsw i64 %134, 3
  br i1 %.not.i.i, label %138, label %136

136:                                              ; preds = %131
  %137 = tail call ptr @realloc(ptr noundef nonnull %133, i64 noundef %135) #25
  %.pre12.pre.i.i = load i32, ptr %5, align 4, !tbaa !49
  br label %140

138:                                              ; preds = %131
  %139 = tail call noalias ptr @malloc(i64 noundef %135) #23
  br label %140

140:                                              ; preds = %138, %136
  %.pre12.i.i = phi i32 [ %.pre12.pre.i.i, %136 ], [ %128, %138 ]
  %141 = phi ptr [ %137, %136 ], [ %139, %138 ]
  store ptr %141, ptr %27, align 8, !tbaa !51
  br label %Cbs_QueFinish.exit

Cbs_QueFinish.exit:                               ; preds = %._crit_edge.i.i, %140
  %142 = phi i32 [ %128, %._crit_edge.i.i ], [ %.pre12.i.i, %140 ]
  %143 = phi ptr [ %.pre.i.i, %._crit_edge.i.i ], [ %141, %140 ]
  %144 = add nsw i32 %142, 1
  store i32 %144, ptr %5, align 4, !tbaa !49
  %145 = sext i32 %142 to i64
  %146 = getelementptr inbounds ptr, ptr %143, i64 %145
  store ptr null, ptr %146, align 8, !tbaa !45
  store i32 %144, ptr %4, align 8, !tbaa !55
  ret i32 %127
}